target datalayout = "e-m:e-p270:32:32-p271:32:32-p272:64:64-i64:64-i128:128-f80:128-n8:16:32:64-S128"
target triple = "x86_64-pc-linux-gnu"

; Function Attrs: nounwind uwtable
define hidden i32 @cmsChannelsOf(i32 noundef %0) #0 {
  %2 = alloca i32, align 4
  %3 = alloca i32, align 4
  %4 = alloca i32, align 4
  store i32 %0, ptr %3, align 4
  %5 = load i32, ptr %3, align 4
  %6 = call i32 @cmsChannelsOfColorSpace(i32 noundef %5)
  store i32 %6, ptr %4, align 4
  %7 = load i32, ptr %4, align 4
  %8 = icmp slt i32 %7, 0
  br i1 %8, label %9, label %10

9:                                                ; preds = %1
  store i32 3, ptr %2, align 4
  br label %12

10:                                               ; preds = %1
  %11 = load i32, ptr %4, align 4
  store i32 %11, ptr %2, align 4
  br label %12

12:                                               ; preds = %10, %9
  %13 = load i32, ptr %2, align 4
  ret i32 %13
}

; Function Attrs: nounwind uwtable
define hidden i32 @_cmsReasonableGridpointsByColorspace(i32 noundef %0, i32 noundef %1) #0 {
  %3 = alloca i32, align 4
  %4 = alloca i32, align 4
  %5 = alloca i32, align 4
  %6 = alloca i32, align 4
  store i32 %0, ptr %4, align 4
  store i32 %1, ptr %5, align 4
  %7 = load i32, ptr %5, align 4
  %8 = and i32 %7, 16711680
  %9 = icmp ne i32 %8, 0
  br i1 %9, label %10, label %14

10:                                               ; preds = %2
  %11 = load i32, ptr %5, align 4
  %12 = lshr i32 %11, 16
  %13 = and i32 %12, 255
  store i32 %13, ptr %3, align 4
  br label %51

14:                                               ; preds = %2
  %15 = load i32, ptr %4, align 4
  %16 = call i32 @cmsChannelsOf(i32 noundef %15)
  store i32 %16, ptr %6, align 4
  %17 = load i32, ptr %5, align 4
  %18 = and i32 %17, 1024
  %19 = icmp ne i32 %18, 0
  br i1 %19, label %20, label %29

20:                                               ; preds = %14
  %21 = load i32, ptr %6, align 4
  %22 = icmp ugt i32 %21, 4
  br i1 %22, label %23, label %24

23:                                               ; preds = %20
  store i32 7, ptr %3, align 4
  br label %51

24:                                               ; preds = %20
  %25 = load i32, ptr %6, align 4
  %26 = icmp eq i32 %25, 4
  br i1 %26, label %27, label %28

27:                                               ; preds = %24
  store i32 23, ptr %3, align 4
  br label %51

28:                                               ; preds = %24
  store i32 49, ptr %3, align 4
  br label %51

29:                                               ; preds = %14
  %30 = load i32, ptr %5, align 4
  %31 = and i32 %30, 2048
  %32 = icmp ne i32 %31, 0
  br i1 %32, label %33, label %42

33:                                               ; preds = %29
  %34 = load i32, ptr %6, align 4
  %35 = icmp ugt i32 %34, 4
  br i1 %35, label %36, label %37

36:                                               ; preds = %33
  store i32 6, ptr %3, align 4
  br label %51

37:                                               ; preds = %33
  %38 = load i32, ptr %6, align 4
  %39 = icmp eq i32 %38, 1
  br i1 %39, label %40, label %41

40:                                               ; preds = %37
  store i32 33, ptr %3, align 4
  br label %51

41:                                               ; preds = %37
  store i32 17, ptr %3, align 4
  br label %51

42:                                               ; preds = %29
  %43 = load i32, ptr %6, align 4
  %44 = icmp ugt i32 %43, 4
  br i1 %44, label %45, label %46

45:                                               ; preds = %42
  store i32 7, ptr %3, align 4
  br label %51

46:                                               ; preds = %42
  %47 = load i32, ptr %6, align 4
  %48 = icmp eq i32 %47, 4
  br i1 %48, label %49, label %50

49:                                               ; preds = %46
  store i32 17, ptr %3, align 4
  br label %51

50:                                               ; preds = %46
  store i32 33, ptr %3, align 4
  br label %51

51:                                               ; preds = %50, %49, %45, %41, %40, %36, %28, %27, %23, %10
  %52 = load i32, ptr %3, align 4
  ret i32 %52
}