; Function Attrs: mustprogress nofree norecurse nosync nounwind willreturn memory(none) uwtable
define hidden range(i32 0, 256) i32 @_cmsReasonableGridpointsByColorspace(i32 noundef %0, i32 noundef %1) local_unnamed_addr #7 {
  %3 = and i32 %1, 16711680
  %.not = icmp eq i32 %3, 0
  br i1 %.not, label %7, label %4

4:                                                ; preds = %2
  %5 = lshr i32 %1, 16
  %6 = and i32 %5, 255
  br label %24

7:                                                ; preds = %2
  %8 = tail call i32 @cmsChannelsOfColorSpace(i32 noundef %0)
  %9 = icmp slt i32 %8, 0
  %..i = select i1 %9, i32 3, i32 %8
  %10 = and i32 %1, 1024
  %.not13 = icmp eq i32 %10, 0
  br i1 %.not13, label %15, label %11

11:                                               ; preds = %7
  %12 = icmp ugt i32 %..i, 4
  br i1 %12, label %24, label %13

13:                                               ; preds = %11
  %14 = icmp eq i32 %..i, 4
  %. = select i1 %14, i32 23, i32 49
  br label %24

15:                                               ; preds = %7
  %16 = and i32 %1, 2048
  %.not14 = icmp eq i32 %16, 0
  %17 = icmp ugt i32 %..i, 4
  br i1 %.not14, label %21, label %18

18:                                               ; preds = %15
  br i1 %17, label %24, label %19

19:                                               ; preds = %18
  %20 = icmp eq i32 %..i, 1
  %.15 = select i1 %20, i32 33, i32 17
  br label %24

21:                                               ; preds = %15
  br i1 %17, label %24, label %22

22:                                               ; preds = %21
  %23 = icmp eq i32 %..i, 4
  %.16 = select i1 %23, i32 17, i32 33
  br label %24

24:                                               ; preds = %22, %21, %19, %18, %13, %11, %4
  %.0 = phi i32 [ %6, %4 ], [ 7, %11 ], [ %., %13 ], [ 6, %18 ], [ %.15, %19 ], [ 7, %21 ], [ %.16, %22 ]
  ret i32 %.0
}